target datalayout = "e-m:e-p270:32:32-p271:32:32-p272:64:64-i64:64-i128:128-f80:128-n8:16:32:64-S128"
target triple = "x86_64-pc-linux-gnu"

%struct.slurm_msg = type { %struct.sockaddr_storage, ptr, i32, i32, i32, i8, i32, i8, i32, ptr, ptr, i32, ptr, ptr, i16, i8, i16, i16, %struct.forward, ptr, %struct.sockaddr_storage, ptr }
%struct.forward = type { %struct.slurm_node_alias_addrs_t, i16, i16, ptr, i32, i16, i16 }
%struct.slurm_node_alias_addrs_t = type { i64, ptr, ptr, i32, ptr }
%struct.sockaddr_storage = type { i16, [118 x i8], i64 }

@working_cluster_rec = external global ptr, align 8

; Function Attrs: nounwind uwtable
define dso_local i32 @slurm_reconfigure() #0 {
  %1 = alloca i32, align 4
  %2 = alloca i32, align 4
  %3 = alloca %struct.slurm_msg, align 8
  %4 = alloca i32, align 4
  call void @llvm.lifetime.start.p0(i64 4, ptr %2) #6
  call void @llvm.lifetime.start.p0(i64 424, ptr %3) #6
  call void @slurm_msg_t_init(ptr noundef %3)
  %5 = getelementptr inbounds nuw %struct.slurm_msg, ptr %3, i32 0, i32 16
  store i16 1003, ptr %5, align 4
  %6 = load ptr, ptr @working_cluster_rec, align 8
  %7 = call i32 @slurm_send_recv_controller_rc_msg(ptr noundef %3, ptr noundef %2, ptr noundef %6)
  %8 = icmp slt i32 %7, 0
  br i1 %8, label %9, label %10

9:                                                ; preds = %0
  store i32 -1, ptr %1, align 4
  store i32 1, ptr %4, align 4
  br label %23

10:                                               ; preds = %0
  %11 = load i32, ptr %2, align 4
  %12 = icmp ne i32 %11, 0
  br i1 %12, label %13, label %22

13:                                               ; preds = %10
  br label %14

14:                                               ; preds = %13
  %15 = load i32, ptr %2, align 4
  %16 = call ptr @__errno_location() #7
  store i32 %15, ptr %16, align 4
  %17 = load i32, ptr %2, align 4
  %18 = icmp ne i32 %17, 0
  %19 = select i1 %18, i32 -1, i32 0
  store i32 %19, ptr %1, align 4
  store i32 1, ptr %4, align 4
  br label %23

20:                                               ; No predecessors!
  br label %21

21:                                               ; preds = %20
  br label %22

22:                                               ; preds = %21, %10
  store i32 0, ptr %1, align 4
  store i32 1, ptr %4, align 4
  br label %23

23:                                               ; preds = %22, %14, %9
  call void @llvm.lifetime.end.p0(i64 424, ptr %3) #6
  call void @llvm.lifetime.end.p0(i64 4, ptr %2) #6
  %24 = load i32, ptr %1, align 4
  ret i32 %24
}