; Function Attrs: nounwind uwtable
define dso_local range(i32 -1, 1) i32 @slurm_reconfigure() local_unnamed_addr #0 {
  %1 = alloca i32, align 4
  %2 = alloca %struct.slurm_msg, align 8
  call void @llvm.lifetime.start.p0(i64 4, ptr nonnull %1) #6
  call void @llvm.lifetime.start.p0(i64 424, ptr nonnull %2) #6
  call void @slurm_msg_t_init(ptr noundef nonnull %2) #6
  %3 = getelementptr inbounds nuw i8, ptr %2, i64 212
  store i16 1003, ptr %3, align 4
  %4 = load ptr, ptr @working_cluster_rec, align 8
  %5 = call i32 @slurm_send_recv_controller_rc_msg(ptr noundef nonnull %2, ptr noundef nonnull %1, ptr noundef %4) #6
  %6 = icmp slt i32 %5, 0
  br i1 %6, label %13, label %7

7:                                                ; preds = %0
  %8 = load i32, ptr %1, align 4
  %.not = icmp eq i32 %8, 0
  br i1 %.not, label %13, label %9

9:                                                ; preds = %7
  %10 = tail call ptr @__errno_location() #7
  store i32 %8, ptr %10, align 4
  %11 = load i32, ptr %1, align 4
  %.not2 = icmp ne i32 %11, 0
  %12 = sext i1 %.not2 to i32
  br label %13

13:                                               ; preds = %7, %0, %9
  %.0 = phi i32 [ %12, %9 ], [ -1, %0 ], [ 0, %7 ]
  call void @llvm.lifetime.end.p0(i64 424, ptr nonnull %2) #6
  call void @llvm.lifetime.end.p0(i64 4, ptr nonnull %1) #6
  ret i32 %.0
}